target datalayout = "e-m:e-p270:32:32-p271:32:32-p272:64:64-i64:64-i128:128-f80:128-n8:16:32:64-S128"
target triple = "x86_64-pc-linux-gnu"

%struct.Decorr = type { i32, i32, i32, i32, [8 x i32], [8 x i32], i32, i32 }
%struct.WavPackExtraInfo = type { [16 x %struct.Decorr], i32, i32, i32, i32 }

; Function Attrs: nounwind uwtable
define internal void @decorr_stereo_buffer(ptr noundef %0, ptr noundef %1, ptr noundef %2, ptr noundef %3, ptr noundef %4, i32 noundef %5, i32 noundef %6) #1 {
  %8 = alloca ptr, align 8
  %9 = alloca ptr, align 8
  %10 = alloca ptr, align 8
  %11 = alloca ptr, align 8
  %12 = alloca ptr, align 8
  %13 = alloca i32, align 4
  %14 = alloca i32, align 4
  %15 = alloca %struct.Decorr, align 4
  %16 = alloca ptr, align 8
  %17 = alloca i32, align 4
  %18 = alloca i32, align 4
  %19 = alloca i32, align 4
  store ptr %0, ptr %8, align 8, !tbaa !235
  store ptr %1, ptr %9, align 8, !tbaa !58
  store ptr %2, ptr %10, align 8, !tbaa !58
  store ptr %3, ptr %11, align 8, !tbaa !58
  store ptr %4, ptr %12, align 8, !tbaa !58
  store i32 %5, ptr %13, align 4, !tbaa !39
  store i32 %6, ptr %14, align 4, !tbaa !39
  call void @llvm.lifetime.start.p0(i64 88, ptr %15) #11
  call void @llvm.memset.p0.i64(ptr align 4 %15, i8 0, i64 88, i1 false)
  call void @llvm.lifetime.start.p0(i64 8, ptr %16) #11
  %20 = load ptr, ptr %8, align 8, !tbaa !235
  %21 = getelementptr inbounds nuw %struct.WavPackExtraInfo, ptr %20, i32 0, i32 0
  %22 = getelementptr inbounds [16 x %struct.Decorr], ptr %21, i64 0, i64 0
  %23 = load i32, ptr %14, align 4, !tbaa !39
  %24 = sext i32 %23 to i64
  %25 = getelementptr inbounds %struct.Decorr, ptr %22, i64 %24
  store ptr %25, ptr %16, align 8, !tbaa !101
  call void @llvm.lifetime.start.p0(i64 4, ptr %17) #11
  %26 = load ptr, ptr %16, align 8, !tbaa !101
  %27 = getelementptr inbounds nuw %struct.Decorr, ptr %26, i32 0, i32 0
  %28 = load i32, ptr %27, align 4, !tbaa !105
  store i32 %28, ptr %17, align 4, !tbaa !39
  call void @llvm.lifetime.start.p0(i64 4, ptr %18) #11
  call void @llvm.lifetime.start.p0(i64 4, ptr %19) #11
  %29 = load ptr, ptr %16, align 8, !tbaa !101
  %30 = getelementptr inbounds nuw %struct.Decorr, ptr %29, i32 0, i32 1
  %31 = load i32, ptr %30, align 4, !tbaa !103
  store i32 %31, ptr %19, align 4, !tbaa !39
  %32 = load i32, ptr %17, align 4, !tbaa !39
  %33 = icmp eq i32 %32, 7
  br i1 %33, label %34, label %35

34:                                               ; preds = %7
  store i32 7, ptr %18, align 4, !tbaa !39
  br label %43

35:                                               ; preds = %7
  %36 = load i32, ptr %17, align 4, !tbaa !39
  %37 = icmp slt i32 %36, 2
  br i1 %37, label %38, label %39

38:                                               ; preds = %35
  store i32 3, ptr %18, align 4, !tbaa !39
  br label %42

39:                                               ; preds = %35
  %40 = load i32, ptr %17, align 4, !tbaa !39
  %41 = add nsw i32 %40, 1
  store i32 %41, ptr %18, align 4, !tbaa !39
  br label %42

42:                                               ; preds = %39, %38
  br label %43

43:                                               ; preds = %42, %34
  %44 = load i32, ptr %19, align 4, !tbaa !39
  %45 = getelementptr inbounds nuw %struct.Decorr, ptr %15, i32 0, i32 1
  store i32 %44, ptr %45, align 4, !tbaa !103
  %46 = load i32, ptr %18, align 4, !tbaa !39
  %47 = getelementptr inbounds nuw %struct.Decorr, ptr %15, i32 0, i32 0
  store i32 %46, ptr %47, align 4, !tbaa !105
  %48 = load ptr, ptr %9, align 8, !tbaa !58
  %49 = load ptr, ptr %10, align 8, !tbaa !58
  %50 = load ptr, ptr %11, align 8, !tbaa !58
  %51 = load ptr, ptr %12, align 8, !tbaa !58
  %52 = load i32, ptr %13, align 4, !tbaa !39
  %53 = icmp sgt i32 2048, %52
  br i1 %53, label %54, label %56

54:                                               ; preds = %43
  %55 = load i32, ptr %13, align 4, !tbaa !39
  br label %57

56:                                               ; preds = %43
  br label %57

57:                                               ; preds = %56, %54
  %58 = phi i32 [ %55, %54 ], [ 2048, %56 ]
  call void @decorr_stereo(ptr noundef %48, ptr noundef %49, ptr noundef %50, ptr noundef %51, i32 noundef %58, ptr noundef %15, i32 noundef -1)
  %59 = load i32, ptr %17, align 4, !tbaa !39
  %60 = getelementptr inbounds nuw %struct.Decorr, ptr %15, i32 0, i32 0
  store i32 %59, ptr %60, align 4, !tbaa !105
  %61 = load i32, ptr %14, align 4, !tbaa !39
  %62 = icmp eq i32 %61, 0
  br i1 %62, label %63, label %64

63:                                               ; preds = %57
  call void @reverse_decorr(ptr noundef %15)
  br label %67

64:                                               ; preds = %57
  %65 = getelementptr inbounds nuw %struct.Decorr, ptr %15, i32 0, i32 4
  call void @llvm.memset.p0.i64(ptr align 4 %65, i8 0, i64 32, i1 false)
  %66 = getelementptr inbounds nuw %struct.Decorr, ptr %15, i32 0, i32 5
  call void @llvm.memset.p0.i64(ptr align 4 %66, i8 0, i64 32, i1 false)
  br label %67

67:                                               ; preds = %64, %63
  %68 = load ptr, ptr %16, align 8, !tbaa !101
  %69 = getelementptr inbounds nuw %struct.Decorr, ptr %68, i32 0, i32 4
  %70 = getelementptr inbounds [8 x i32], ptr %69, i64 0, i64 0
  %71 = getelementptr inbounds nuw %struct.Decorr, ptr %15, i32 0, i32 4
  %72 = getelementptr inbounds [8 x i32], ptr %71, i64 0, i64 0
  call void @llvm.memcpy.p0.p0.i64(ptr align 4 %70, ptr align 4 %72, i64 32, i1 false)
  %73 = load ptr, ptr %16, align 8, !tbaa !101
  %74 = getelementptr inbounds nuw %struct.Decorr, ptr %73, i32 0, i32 5
  %75 = getelementptr inbounds [8 x i32], ptr %74, i64 0, i64 0
  %76 = getelementptr inbounds nuw %struct.Decorr, ptr %15, i32 0, i32 5
  %77 = getelementptr inbounds [8 x i32], ptr %76, i64 0, i64 0
  call void @llvm.memcpy.p0.p0.i64(ptr align 4 %75, ptr align 4 %77, i64 32, i1 false)
  %78 = getelementptr inbounds nuw %struct.Decorr, ptr %15, i32 0, i32 2
  %79 = load i32, ptr %78, align 4, !tbaa !107
  %80 = load ptr, ptr %16, align 8, !tbaa !101
  %81 = getelementptr inbounds nuw %struct.Decorr, ptr %80, i32 0, i32 2
  store i32 %79, ptr %81, align 4, !tbaa !107
  %82 = getelementptr inbounds nuw %struct.Decorr, ptr %15, i32 0, i32 3
  %83 = load i32, ptr %82, align 4, !tbaa !108
  %84 = load ptr, ptr %16, align 8, !tbaa !101
  %85 = getelementptr inbounds nuw %struct.Decorr, ptr %84, i32 0, i32 3
  store i32 %83, ptr %85, align 4, !tbaa !108
  %86 = load i32, ptr %17, align 4, !tbaa !39
  %87 = icmp eq i32 %86, 0
  br i1 %87, label %88, label %120

88:                                               ; preds = %67
  %89 = getelementptr inbounds nuw %struct.Decorr, ptr %15, i32 0, i32 0
  store i32 1, ptr %89, align 4, !tbaa !105
  %90 = load ptr, ptr %9, align 8, !tbaa !58
  %91 = load ptr, ptr %10, align 8, !tbaa !58
  %92 = load ptr, ptr %11, align 8, !tbaa !58
  %93 = load ptr, ptr %12, align 8, !tbaa !58
  %94 = load i32, ptr %13, align 4, !tbaa !39
  call void @decorr_stereo(ptr noundef %90, ptr noundef %91, ptr noundef %92, ptr noundef %93, i32 noundef %94, ptr noundef %15, i32 noundef 1)
  %95 = getelementptr inbounds nuw %struct.Decorr, ptr %15, i32 0, i32 0
  store i32 0, ptr %95, align 4, !tbaa !105
  %96 = getelementptr inbounds nuw %struct.Decorr, ptr %15, i32 0, i32 4
  %97 = getelementptr inbounds [8 x i32], ptr %96, i64 0, i64 0
  %98 = load ptr, ptr %16, align 8, !tbaa !101
  %99 = getelementptr inbounds nuw %struct.Decorr, ptr %98, i32 0, i32 4
  %100 = getelementptr inbounds [8 x i32], ptr %99, i64 0, i64 0
  call void @llvm.memcpy.p0.p0.i64(ptr align 4 %97, ptr align 4 %100, i64 32, i1 false)
  %101 = getelementptr inbounds nuw %struct.Decorr, ptr %15, i32 0, i32 5
  %102 = getelementptr inbounds [8 x i32], ptr %101, i64 0, i64 0
  %103 = load ptr, ptr %16, align 8, !tbaa !101
  %104 = getelementptr inbounds nuw %struct.Decorr, ptr %103, i32 0, i32 5
  %105 = getelementptr inbounds [8 x i32], ptr %104, i64 0, i64 0
  call void @llvm.memcpy.p0.p0.i64(ptr align 4 %102, ptr align 4 %105, i64 32, i1 false)
  %106 = getelementptr inbounds nuw %struct.Decorr, ptr %15, i32 0, i32 6
  %107 = load i32, ptr %106, align 4, !tbaa !219
  %108 = load i32, ptr %13, align 4, !tbaa !39
  %109 = sdiv i32 %107, %108
  %110 = getelementptr inbounds nuw %struct.Decorr, ptr %15, i32 0, i32 2
  store i32 %109, ptr %110, align 4, !tbaa !107
  %111 = load ptr, ptr %16, align 8, !tbaa !101
  %112 = getelementptr inbounds nuw %struct.Decorr, ptr %111, i32 0, i32 2
  store i32 %109, ptr %112, align 4, !tbaa !107
  %113 = getelementptr inbounds nuw %struct.Decorr, ptr %15, i32 0, i32 7
  %114 = load i32, ptr %113, align 4, !tbaa !248
  %115 = load i32, ptr %13, align 4, !tbaa !39
  %116 = sdiv i32 %114, %115
  %117 = getelementptr inbounds nuw %struct.Decorr, ptr %15, i32 0, i32 3
  store i32 %116, ptr %117, align 4, !tbaa !108
  %118 = load ptr, ptr %16, align 8, !tbaa !101
  %119 = getelementptr inbounds nuw %struct.Decorr, ptr %118, i32 0, i32 3
  store i32 %116, ptr %119, align 4, !tbaa !108
  br label %120

120:                                              ; preds = %88, %67
  %121 = load ptr, ptr %8, align 8, !tbaa !235
  %122 = getelementptr inbounds nuw %struct.WavPackExtraInfo, ptr %121, i32 0, i32 3
  %123 = load i32, ptr %122, align 4, !tbaa !269
  %124 = icmp ne i32 %123, 0
  br i1 %124, label %125, label %131

125:                                              ; preds = %120
  %126 = load ptr, ptr %9, align 8, !tbaa !58
  %127 = load ptr, ptr %10, align 8, !tbaa !58
  %128 = load ptr, ptr %11, align 8, !tbaa !58
  %129 = load ptr, ptr %12, align 8, !tbaa !58
  %130 = load i32, ptr %13, align 4, !tbaa !39
  call void @decorr_stereo(ptr noundef %126, ptr noundef %127, ptr noundef %128, ptr noundef %129, i32 noundef %130, ptr noundef %15, i32 noundef 1)
  br label %137

131:                                              ; preds = %120
  %132 = load ptr, ptr %9, align 8, !tbaa !58
  %133 = load ptr, ptr %10, align 8, !tbaa !58
  %134 = load ptr, ptr %11, align 8, !tbaa !58
  %135 = load ptr, ptr %12, align 8, !tbaa !58
  %136 = load i32, ptr %13, align 4, !tbaa !39
  call void @decorr_stereo_quick(ptr noundef %132, ptr noundef %133, ptr noundef %134, ptr noundef %135, i32 noundef %136, ptr noundef %15)
  br label %137

137:                                              ; preds = %131, %125
  call void @llvm.lifetime.end.p0(i64 4, ptr %19) #11
  call void @llvm.lifetime.end.p0(i64 4, ptr %18) #11
  call void @llvm.lifetime.end.p0(i64 4, ptr %17) #11
  call void @llvm.lifetime.end.p0(i64 8, ptr %16) #11
  call void @llvm.lifetime.end.p0(i64 88, ptr %15) #11
  ret void
}