; Function Attrs: nofree norecurse nosync nounwind memory(argmem: readwrite) uwtable
define internal fastcc void @decorr_stereo_buffer(ptr noundef nonnull captures(none) %0, ptr noundef readonly captures(none) %1, ptr noundef readonly captures(none) %2, ptr noundef writeonly captures(none) %3, ptr noundef writeonly captures(none) %4, i32 noundef %5, i32 noundef %6) unnamed_addr #9 {
  %8 = alloca %struct.Decorr, align 4
  call void @llvm.lifetime.start.p0(i64 88, ptr nonnull %8) #15
  %9 = getelementptr inbounds nuw i8, ptr %8, i64 8
  call void @llvm.memset.p0.i64(ptr noundef nonnull align 4 dereferenceable(80) %9, i8 0, i64 80, i1 false)
  %10 = sext i32 %6 to i64
  %11 = getelementptr inbounds %struct.Decorr, ptr %0, i64 %10
  %12 = load i32, ptr %11, align 4, !tbaa !119
  %13 = getelementptr inbounds nuw i8, ptr %11, i64 4
  %14 = load i32, ptr %13, align 4, !tbaa !117
  %15 = icmp eq i32 %12, 7
  %16 = tail call i32 @llvm.smax.i32(i32 %12, i32 2)
  %spec.select = add nuw i32 %16, 1
  %.0 = select i1 %15, i32 7, i32 %spec.select
  %17 = getelementptr inbounds nuw i8, ptr %8, i64 4
  store i32 %14, ptr %17, align 4, !tbaa !117
  store i32 %.0, ptr %8, align 4, !tbaa !119
  %18 = tail call i32 @llvm.smin.i32(i32 %5, i32 2048)
  call fastcc void @decorr_stereo(ptr noundef %1, ptr noundef %2, ptr noundef %3, ptr noundef %4, i32 noundef %18, ptr noundef %8, i32 noundef -1)
  store i32 %12, ptr %8, align 4, !tbaa !119
  %19 = icmp eq i32 %6, 0
  br i1 %19, label %20, label %21

20:                                               ; preds = %7
  call fastcc void @reverse_decorr(ptr noundef %8)
  br label %23

21:                                               ; preds = %7
  %22 = getelementptr inbounds nuw i8, ptr %8, i64 16
  call void @llvm.memset.p0.i64(ptr noundef nonnull align 4 dereferenceable(64) %22, i8 0, i64 64, i1 false)
  br label %23

23:                                               ; preds = %21, %20
  %24 = getelementptr inbounds nuw i8, ptr %11, i64 16
  %25 = getelementptr inbounds nuw i8, ptr %8, i64 16
  call void @llvm.memcpy.p0.p0.i64(ptr noundef nonnull align 4 dereferenceable(32) %24, ptr noundef nonnull align 4 dereferenceable(32) %25, i64 32, i1 false)
  %26 = getelementptr inbounds nuw i8, ptr %11, i64 48
  %27 = getelementptr inbounds nuw i8, ptr %8, i64 48
  call void @llvm.memcpy.p0.p0.i64(ptr noundef nonnull align 4 dereferenceable(32) %26, ptr noundef nonnull align 4 dereferenceable(32) %27, i64 32, i1 false)
  %28 = getelementptr inbounds nuw i8, ptr %8, i64 8
  %29 = load i32, ptr %28, align 4, !tbaa !121
  %30 = getelementptr inbounds nuw i8, ptr %11, i64 8
  store i32 %29, ptr %30, align 4, !tbaa !121
  %31 = getelementptr inbounds nuw i8, ptr %8, i64 12
  %32 = load i32, ptr %31, align 4, !tbaa !122
  %33 = getelementptr inbounds nuw i8, ptr %11, i64 12
  store i32 %32, ptr %33, align 4, !tbaa !122
  %34 = icmp eq i32 %12, 0
  br i1 %34, label %35, label %42

35:                                               ; preds = %23
  store i32 1, ptr %8, align 4, !tbaa !119
  call fastcc void @decorr_stereo(ptr noundef %1, ptr noundef %2, ptr noundef %3, ptr noundef %4, i32 noundef %5, ptr noundef %8, i32 noundef 1)
  store i32 0, ptr %8, align 4, !tbaa !119
  call void @llvm.memcpy.p0.p0.i64(ptr noundef nonnull align 4 dereferenceable(32) %25, ptr noundef nonnull align 4 dereferenceable(32) %24, i64 32, i1 false)
  call void @llvm.memcpy.p0.p0.i64(ptr noundef nonnull align 4 dereferenceable(32) %27, ptr noundef nonnull align 4 dereferenceable(32) %26, i64 32, i1 false)
  %36 = getelementptr inbounds nuw i8, ptr %8, i64 80
  %37 = load i32, ptr %36, align 4, !tbaa !184
  %38 = sdiv i32 %37, %5
  store i32 %38, ptr %28, align 4, !tbaa !121
  store i32 %38, ptr %30, align 4, !tbaa !121
  %39 = getelementptr inbounds nuw i8, ptr %8, i64 84
  %40 = load i32, ptr %39, align 4, !tbaa !223
  %41 = sdiv i32 %40, %5
  store i32 %41, ptr %31, align 4, !tbaa !122
  store i32 %41, ptr %33, align 4, !tbaa !122
  br label %42

42:                                               ; preds = %35, %23
  %43 = getelementptr inbounds nuw i8, ptr %0, i64 1416
  %44 = load i32, ptr %43, align 4, !tbaa !242
  %.not = icmp eq i32 %44, 0
  br i1 %.not, label %46, label %45

45:                                               ; preds = %42
  call fastcc void @decorr_stereo(ptr noundef %1, ptr noundef %2, ptr noundef %3, ptr noundef %4, i32 noundef %5, ptr noundef %8, i32 noundef 1)
  br label %47

46:                                               ; preds = %42
  call fastcc void @decorr_stereo_quick(ptr noundef %1, ptr noundef %2, ptr noundef %3, ptr noundef %4, i32 noundef %5, ptr noundef %8)
  br label %47

47:                                               ; preds = %46, %45
  call void @llvm.lifetime.end.p0(i64 88, ptr nonnull %8) #15
  ret void
}